; Function Attrs: nounwind uwtable
define range(i32 -1, 1) i32 @H5LTget_attribute_short(i64 noundef %0, ptr noundef %1, ptr noundef %2, ptr noundef %3) local_unnamed_addr #0 {
  %5 = load i8, ptr @H5_libinit_g, align 1, !tbaa !10, !range !12, !noundef !13
  %6 = trunc nuw i8 %5 to i1
  %7 = load i8, ptr @H5_libterm_g, align 1, !range !12
  %8 = trunc nuw i8 %7 to i1
  %9 = select i1 %6, i1 true, i1 %8
  br i1 %9, label %12, label %10, !prof !14

10:                                               ; preds = %4
  %11 = tail call i32 @H5open() #20
  br label %12

12:                                               ; preds = %4, %10
  %13 = load i64, ptr @H5T_NATIVE_SHORT_g, align 8, !tbaa !15
  %14 = tail call fastcc i32 @H5LT_get_attribute_mem(i64 noundef %0, ptr noundef %1, ptr noundef %2, i64 noundef %13, ptr noundef %3)
  ret i32 %14
}